(ios
_Environ
p1
(dp2
S'data'
p3
(dp4
S'LC_NUMERIC'
p5
S'vi_VN'
p6
sS'tokyoCabinetIncl'
p7
S'-I/home/mkolmogo/tools/progressiveCactus/submodules/tokyocabinet/include -DHAVE_TOKYO_CABINET=1'
p8
sS'BLAS'
p9
S'/home/kspham/src/BLAS-*/libfblas.a'
p10
sS'LESSOPEN'
p11
S'|/usr/bin/lesspipe.sh %s'
p12
sS'SSH_CLIENT'
p13
S'137.110.161.84 38186 22'
p14
sS'CVS_RSH'
p15
S'ssh'
p16
sS'LOGNAME'
p17
S'kspham'
p18
sS'USER'
p19
S'kspham'
p20
sS'HOME'
p21
S'/home/kspham'
p22
sS'LC_PAPER'
p23
S'vi_VN'
p24
sS'PATH'
p25
S'/home/mkolmogo/tools/progressiveCactus/submodules/cactus2hal/bin:/home/mkolmogo/tools/progressiveCactus/submodules/hal/bin:/home/mkolmogo/tools/progressiveCactus/submodules/cactus/bin:/home/mkolmogo/tools/progressiveCactus/submodules/matchingAndOrdering/bin:/home/mkolmogo/tools/progressiveCactus/submodules/pinchesAndCacti/bin:/home/mkolmogo/tools/progressiveCactus/submodules/jobTree/bin:/home/mkolmogo/tools/progressiveCactus/submodules/sonLib/bin:/home/mkolmogo/tools/progressiveCactus/submodules/hdf5/bin:/home/mkolmogo/tools/progressiveCactus/submodules/kentToolBinaries:/home/mkolmogo/tools/progressiveCactus/submodules/phast/bin:/home/mkolmogo/tools/progressiveCactus/submodules/kyototycoon/bin:/home/mkolmogo/tools/progressiveCactus/submodules/kyotocabinet/bin:/home/mkolmogo/tools/progressiveCactus/submodules/tokyocabinet/bin:/home/mkolmogo/tools/progressiveCactus/submodules/zlib/bin:/home/mkolmogo/tools/progressiveCactus/python/bin:/home/mkolmogo/tools/progressiveCactus/python/bin:/home/mkolmogo/tools/progressiveCactus/submodules/cactus2hal/bin:/home/mkolmogo/tools/progressiveCactus/submodules/hal/bin:/home/mkolmogo/tools/progressiveCactus/submodules/cactus/bin:/home/mkolmogo/tools/progressiveCactus/submodules/matchingAndOrdering/bin:/home/mkolmogo/tools/progressiveCactus/submodules/pinchesAndCacti/bin:/home/mkolmogo/tools/progressiveCactus/submodules/jobTree/bin:/home/mkolmogo/tools/progressiveCactus/submodules/sonLib/bin:/home/mkolmogo/tools/progressiveCactus/submodules/hdf5/bin:/home/mkolmogo/tools/progressiveCactus/submodules/kentToolBinaries:/home/mkolmogo/tools/progressiveCactus/submodules/phast/bin:/home/mkolmogo/tools/progressiveCactus/submodules/kyototycoon/bin:/home/mkolmogo/tools/progressiveCactus/submodules/kyotocabinet/bin:/home/mkolmogo/tools/progressiveCactus/submodules/tokyocabinet/bin:/home/mkolmogo/tools/progressiveCactus/submodules/zlib/bin:/home/mkolmogo/tools/progressiveCactus/python/bin:/home/mkolmogo/tools/progressiveCactus/python/bin:/home/mkolmogo/tools/progressiveCactus/submodules/cactus2hal/bin:/home/mkolmogo/tools/progressiveCactus/submodules/hal/bin:/home/mkolmogo/tools/progressiveCactus/submodules/cactus/bin:/home/mkolmogo/tools/progressiveCactus/submodules/matchingAndOrdering/bin:/home/mkolmogo/tools/progressiveCactus/submodules/pinchesAndCacti/bin:/home/mkolmogo/tools/progressiveCactus/submodules/jobTree/bin:/home/mkolmogo/tools/progressiveCactus/submodules/sonLib/bin:/home/mkolmogo/tools/progressiveCactus/submodules/hdf5/bin:/home/mkolmogo/tools/progressiveCactus/submodules/kentToolBinaries:/home/mkolmogo/tools/progressiveCactus/submodules/phast/bin:/home/mkolmogo/tools/progressiveCactus/submodules/kyototycoon/bin:/home/mkolmogo/tools/progressiveCactus/submodules/kyotocabinet/bin:/home/mkolmogo/tools/progressiveCactus/submodules/tokyocabinet/bin:/home/mkolmogo/tools/progressiveCactus/submodules/zlib/bin:/home/mkolmogo/tools/progressiveCactus/python/bin:/home/mkolmogo/tools/progressiveCactus/python/bin:/home/kspham/anaconda2/bin:/home/kspham/.root/bin:/home/kspham/.root/usr/bin/jdk1.8.0_65//bin:/home/kspham/anaconda2/bin:/home/kspham/.root/bin:/home/kspham/.root/usr/bin/jdk1.8.0_65//bin:/usr/local/openmpi/gcc/bin:/usr/kerberos/bin:/usr/local/bin:/bin:/usr/bin:/opt/eclipse:/home/kspham/.root/usr/bin/scala-2.11.7//bin:/home/kspham/.root/usr/bin/spark-1.5.1//bin:~/htop-1.0.2/:/u/projects4/pashadag/pham/ptdtan/mummer/MUMmer3.23/:/home/kspham/usr/bin/:/home/kspham/usr/bin//bin:/home/kspham/.modules/:/home/kspham:/u/projects4/pashadag/pham/ptdtan/RNAseq/bayes/freebayes/vcflib/bin/:/home/kspham/.local/bin:/home/kspham/.root/usr/bin/scala-2.11.7//bin:/home/kspham/.root/usr/bin/spark-1.5.1//bin:~/htop-1.0.2/:/u/projects4/pashadag/pham/ptdtan/mummer/MUMmer3.23/:/home/kspham/usr/bin/:/home/kspham/usr/bin//bin:/home/kspham/.modules/:/home/kspham:/u/projects4/pashadag/pham/ptdtan/RNAseq/bayes/freebayes/vcflib/bin/:/home/kspham/.local/bin'
p26
sS'PS1'
p27
S'(python)'
p28
sS'LD_LIBRARY_PATH'
p29
S'/home/mkolmogo/tools/progressiveCactus/submodules/zlib/lib:/home/mkolmogo/tools/progressiveCactus/submodules/kyotocabinet/lib:/home/mkolmogo/tools/progressiveCactus/submodules/kyototycoon/lib:/home/mkolmogo/.local/lib64:/home/mkolmogo/.local/lib:/usr/local/openmpi/gcc/lib'
p30
sS'LANG'
p31
S'en_US.UTF-8'
p32
sS'TERM'
p33
S'screen'
p34
sS'SHELL'
p35
S'/bin/bash'
p36
sS'TEXINPUTS'
p37
S'.:/usr/cse/share/tex/texmf//:/usr/share/texmf//'
p38
sS'LC_MONETARY'
p39
S'vi_VN'
p40
sS'kyotoTycoonLib'
p41
S'-L/home/mkolmogo/tools/progressiveCactus/submodules/kyototycoon/lib -L/home/mkolmogo/tools/progressiveCactus/submodules/kyotocabinet/lib -Wl,-rpath,/home/mkolmogo/tools/progressiveCactus/submodules/kyototycoon/lib -lkyototycoon -lkyotocabinet -lz -lbz2 -lpthread -lm -lstdc++'
p42
sS'G_BROKEN_FILENAMES'
p43
S'1'
sS'WINDOW'
p44
S'0'
sS'HISTSIZE'
p45
S'1000'
p46
sS'tokyoCabinetLib'
p47
S'-L/home/mkolmogo/tools/progressiveCactus/submodules/tokyocabinet/lib -Wl,-rpath,/home/mkolmogo/tools/progressiveCactus/submodules/tokyocabinet/lib -ltokyocabinet -lz -lbz2 -lpthread -lm'
p48
sS'MANPATH'
p49
S'/usr/local/openmpi/gcc/share/man:'
p50
sS'kyotoTycoonIncl'
p51
S'-I/home/mkolmogo/tools/progressiveCactus/submodules/kyotocabinet/include -I/home/mkolmogo/tools/progressiveCactus/submodules/kyototycoon/include -DHAVE_KYOTO_TYCOON=1'
p52
sS'MSM_PRODUCT'
p53
S'MSM'
p54
sS'LC_IDENTIFICATION'
p55
S'vi_VN'
p56
sS'LC_ADDRESS'
p57
S'vi_VN'
p58
sS'PYTHONPATH'
p59
S'/home/mkolmogo/tools/progressiveCactus/submodules:/home/mkolmogo/tools/progressiveCactus/submodules:/home/mkolmogo/tools/progressiveCactus/submodules:/home/kspham/.root/lib/python2.7/'
p60
sS'SSH_AUTH_SOCK'
p61
S'/tmp/ssh-pPZDvH5193/agent.5193'
p62
sS'SHLVL'
p63
S'4'
sS'VIRTUAL_ENV'
p64
S'/home/mkolmogo/tools/progressiveCactus/python'
p65
sS'STY'
p66
S'5820.deploy'
p67
sS'_'
S'/home/mkolmogo/tools/progressiveCactus/submodules/cactus/bin/cactus_progressive.py'
p68
sS'TERMCAP'
p69
S'SC|screen|VT 100/ANSI X3.64 virtual terminal:\\\n\t:DO=\\E[%dB:LE=\\E[%dD:RI=\\E[%dC:UP=\\E[%dA:bs:bt=\\E[Z:\\\n\t:cd=\\E[J:ce=\\E[K:cl=\\E[H\\E[J:cm=\\E[%i%d;%dH:ct=\\E[3g:\\\n\t:do=^J:nd=\\E[C:pt:rc=\\E8:rs=\\Ec:sc=\\E7:st=\\EH:up=\\EM:\\\n\t:le=^H:bl=^G:cr=^M:it#8:ho=\\E[H:nw=\\EE:ta=^I:is=\\E)0:\\\n\t:li#35:co#135:am:xn:xv:LP:sr=\\EM:al=\\E[L:AL=\\E[%dL:\\\n\t:cs=\\E[%i%d;%dr:dl=\\E[M:DL=\\E[%dM:dc=\\E[P:DC=\\E[%dP:\\\n\t:im=\\E[4h:ei=\\E[4l:mi:IC=\\E[%d@:ks=\\E[?1h\\E=:\\\n\t:ke=\\E[?1l\\E>:vi=\\E[?25l:ve=\\E[34h\\E[?25h:vs=\\E[34l:\\\n\t:ti=\\E[?1049h:te=\\E[?1049l:us=\\E[4m:ue=\\E[24m:so=\\E[3m:\\\n\t:se=\\E[23m:mb=\\E[5m:md=\\E[1m:mr=\\E[7m:me=\\E[m:ms:\\\n\t:Co#8:pa#64:AF=\\E[3%dm:AB=\\E[4%dm:op=\\E[39;49m:AX:\\\n\t:vb=\\Eg:G0:as=\\E(0:ae=\\E(B:\\\n\t:ac=\\140\\140aaffggjjkkllmmnnooppqqrrssttuuvvwwxxyyzz{{||}}~~..--++,,hhII00:\\\n\t:po=\\E[5i:pf=\\E[4i:Z0=\\E[?3h:Z1=\\E[?3l:k0=\\E[10~:\\\n\t:k1=\\EOP:k2=\\EOQ:k3=\\EOR:k4=\\EOS:k5=\\E[15~:k6=\\E[17~:\\\n\t:k7=\\E[18~:k8=\\E[19~:k9=\\E[20~:k;=\\E[21~:F1=\\E[23~:\\\n\t:F2=\\E[24~:F3=\\EO2P:F4=\\EO2Q:F5=\\EO2R:F6=\\EO2S:\\\n\t:F7=\\E[15;2~:F8=\\E[17;2~:F9=\\E[18;2~:FA=\\E[19;2~:kb=\x7f:\\\n\t:K2=\\EOE:kB=\\E[Z:kF=\\E[1;2B:kR=\\E[1;2A:*4=\\E[3;2~:\\\n\t:*7=\\E[1;2F:#2=\\E[1;2H:#3=\\E[2;2~:#4=\\E[1;2D:%c=\\E[6;2~:\\\n\t:%e=\\E[5;2~:%i=\\E[1;2C:kh=\\E[1~:@1=\\E[1~:kH=\\E[4~:\\\n\t:@7=\\E[4~:kN=\\E[6~:kP=\\E[5~:kI=\\E[2~:kD=\\E[3~:ku=\\EOA:\\\n\t:kd=\\EOB:kr=\\EOC:kl=\\EOD:km:'
p70
sS'SSH_CONNECTION'
p71
S'137.110.161.84 38186 132.239.17.207 22'
p72
sS'SSH_TTY'
p73
S'/dev/pts/8'
p74
sS'HOSTNAME'
p75
S'debruijn.ucsd.edu'
p76
sS'LC_TELEPHONE'
p77
S'vi_VN'
p78
sS'LC_MEASUREMENT'
p79
S'vi_VN'
p80
sS'PWD'
p81
S'/u/projects4/pashadag/pham/ptdtan/Ragout/Y.pestis'
p82
sS'SON_TRACE_DATASETS'
p83
S'/home/mkolmogo/tools/progressiveCactus/submodules/cactusTestData'
p84
sS'MSM_HOME'
p85
S'/usr/local/MegaRAID Storage Manager'
p86
sS'LC_NAME'
p87
S'vi_VN'
p88
sS'MAIL'
p89
S'/var/spool/mail/kspham'
p90
sS'LC_TIME'
p91
S'vi_VN'
p92
sS'LS_COLORS'
p93
S''
ssb.